target datalayout = "e-m:e-p270:32:32-p271:32:32-p272:64:64-i64:64-i128:128-f80:128-n8:16:32:64-S128"
target triple = "x86_64-pc-linux-gnu"

%struct.git_hash_algo = type { ptr, i32, i64, i64, i64, ptr, ptr, ptr, ptr, ptr, ptr, ptr, ptr, ptr }
%struct.cache_time = type { i32, i32 }
%struct.hashmap = type { ptr, ptr, ptr, i32, i32, i32, i32, i8 }
%struct.object_id = type { [32 x i8], i32 }
%struct.cache_entry = type { %struct.hashmap_entry, %struct.stat_data, i32, i32, i32, i32, i32, %struct.object_id, [0 x i8] }
%struct.hashmap_entry = type { ptr, i32 }
%struct.stat_data = type { %struct.cache_time, %struct.cache_time, i32, i32, i32, i32, i32 }
%struct.stat = type { i64, i64, i64, i32, i32, i32, i32, i64, i64, i64, i64, %struct.timespec, %struct.timespec, %struct.timespec, [3 x i64] }
%struct.timespec = type { i64, i64 }
%struct.repository = type { ptr, ptr, ptr, ptr, ptr, %struct.strmap, %struct.strmap, %struct.repo_path_cache, ptr, ptr, ptr, ptr, %struct.repo_settings, ptr, ptr, ptr, ptr, ptr, ptr, i32, i32, i32, ptr, ptr, i32, i32, i8 }
%struct.strmap = type { %struct.hashmap, ptr, i8 }
%struct.repo_path_cache = type { ptr, ptr, ptr, ptr, ptr, ptr, ptr }
%struct.repo_settings = type { i32, i32, i32, i32, i32, i32, i32, i32, i32, i32, i32, i32, ptr, i32, i32, i32, i32, i32, i32, i32, i64, i64, i64 }

@the_repository = external global ptr, align 8
@.str.3 = private unnamed_addr constant [5 x i8] c"HEAD\00", align 1
@trust_executable_bit = external global i32, align 4
@has_symlinks = external global i32, align 4
@.str.18 = private unnamed_addr constant [13 x i8] c"read-cache.c\00", align 1
@.str.51 = private unnamed_addr constant [24 x i8] c"unsupported ce_mode: %o\00", align 1

; Function Attrs: inlinehint nounwind uwtable
define internal i32 @oideq(ptr noundef %0, ptr noundef %1) #3 {
  %3 = alloca ptr, align 8
  %4 = alloca ptr, align 8
  store ptr %0, ptr %3, align 8, !tbaa !71
  store ptr %1, ptr %4, align 8, !tbaa !71
  %5 = load ptr, ptr %3, align 8, !tbaa !71
  %6 = getelementptr inbounds nuw %struct.object_id, ptr %5, i32 0, i32 0
  %7 = getelementptr inbounds [32 x i8], ptr %6, i64 0, i64 0
  %8 = load ptr, ptr %4, align 8, !tbaa !71
  %9 = getelementptr inbounds nuw %struct.object_id, ptr %8, i32 0, i32 0
  %10 = getelementptr inbounds [32 x i8], ptr %9, i64 0, i64 0
  %11 = call i32 @memcmp(ptr noundef %7, ptr noundef %10, i64 noundef 32) #13
  %12 = icmp ne i32 %11, 0
  %13 = xor i1 %12, true
  %14 = zext i1 %13 to i32
  ret i32 %14
}

; Function Attrs: inlinehint nounwind uwtable
define internal i32 @is_empty_blob_oid(ptr noundef %0, ptr noundef %1) #3 {
  %3 = alloca ptr, align 8
  %4 = alloca ptr, align 8
  store ptr %0, ptr %3, align 8, !tbaa !71
  store ptr %1, ptr %4, align 8, !tbaa !130
  %5 = load ptr, ptr %3, align 8, !tbaa !71
  %6 = load ptr, ptr %4, align 8, !tbaa !130
  %7 = getelementptr inbounds nuw %struct.git_hash_algo, ptr %6, i32 0, i32 11
  %8 = load ptr, ptr %7, align 8, !tbaa !267
  %9 = call i32 @oideq(ptr noundef %5, ptr noundef %8)
  ret i32 %9
}

; Function Attrs: nounwind uwtable
define internal i32 @ce_compare_gitlink(ptr noundef %0) #0 {
  %2 = alloca i32, align 4
  %3 = alloca ptr, align 8
  %4 = alloca %struct.object_id, align 4
  %5 = alloca i32, align 4
  store ptr %0, ptr %3, align 8, !tbaa !29
  call void @llvm.lifetime.start.p0(i64 36, ptr %4) #12
  %6 = load ptr, ptr @the_repository, align 8, !tbaa !48
  %7 = load ptr, ptr %3, align 8, !tbaa !29
  %8 = getelementptr inbounds nuw %struct.cache_entry, ptr %7, i32 0, i32 8
  %9 = getelementptr inbounds [0 x i8], ptr %8, i64 0, i64 0
  %10 = call i32 @repo_resolve_gitlink_ref(ptr noundef %6, ptr noundef %9, ptr noundef @.str.3, ptr noundef %4)
  %11 = icmp slt i32 %10, 0
  br i1 %11, label %12, label %13

12:                                               ; preds = %1
  store i32 0, ptr %2, align 4
  store i32 1, ptr %5, align 4
  br label %20

13:                                               ; preds = %1
  %14 = load ptr, ptr %3, align 8, !tbaa !29
  %15 = getelementptr inbounds nuw %struct.cache_entry, ptr %14, i32 0, i32 7
  %16 = call i32 @oideq(ptr noundef %4, ptr noundef %15)
  %17 = icmp ne i32 %16, 0
  %18 = xor i1 %17, true
  %19 = zext i1 %18 to i32
  store i32 %19, ptr %2, align 4
  store i32 1, ptr %5, align 4
  br label %20

20:                                               ; preds = %13, %12
  call void @llvm.lifetime.end.p0(i64 36, ptr %4) #12
  %21 = load i32, ptr %2, align 4
  ret i32 %21
}

; Function Attrs: nounwind uwtable
define internal i32 @ce_match_stat_basic(ptr noundef %0, ptr noundef %1) #0 {
  %3 = alloca i32, align 4
  %4 = alloca ptr, align 8
  %5 = alloca ptr, align 8
  %6 = alloca i32, align 4
  %7 = alloca i32, align 4
  store ptr %0, ptr %4, align 8, !tbaa !29
  store ptr %1, ptr %5, align 8, !tbaa !36
  call void @llvm.lifetime.start.p0(i64 4, ptr %6) #12
  store i32 0, ptr %6, align 4, !tbaa !9
  %8 = load ptr, ptr %4, align 8, !tbaa !29
  %9 = getelementptr inbounds nuw %struct.cache_entry, ptr %8, i32 0, i32 3
  %10 = load i32, ptr %9, align 8, !tbaa !9
  %11 = and i32 %10, 131072
  %12 = icmp ne i32 %11, 0
  br i1 %12, label %13, label %14

13:                                               ; preds = %2
  store i32 104, ptr %3, align 4
  store i32 1, ptr %7, align 4
  br label %113

14:                                               ; preds = %2
  %15 = load ptr, ptr %4, align 8, !tbaa !29
  %16 = getelementptr inbounds nuw %struct.cache_entry, ptr %15, i32 0, i32 2
  %17 = load i32, ptr %16, align 4, !tbaa !9
  %18 = and i32 %17, 61440
  switch i32 %18, label %83 [
    i32 32768, label %19
    i32 40960, label %45
    i32 57344, label %64
  ]

19:                                               ; preds = %14
  %20 = load ptr, ptr %5, align 8, !tbaa !36
  %21 = getelementptr inbounds nuw %struct.stat, ptr %20, i32 0, i32 3
  %22 = load i32, ptr %21, align 8, !tbaa !38
  %23 = and i32 %22, 61440
  %24 = icmp eq i32 %23, 32768
  %25 = xor i1 %24, true
  %26 = select i1 %25, i32 64, i32 0
  %27 = load i32, ptr %6, align 4, !tbaa !9
  %28 = or i32 %27, %26
  store i32 %28, ptr %6, align 4, !tbaa !9
  %29 = load i32, ptr @trust_executable_bit, align 4, !tbaa !9
  %30 = icmp ne i32 %29, 0
  br i1 %30, label %31, label %44

31:                                               ; preds = %19
  %32 = load ptr, ptr %4, align 8, !tbaa !29
  %33 = getelementptr inbounds nuw %struct.cache_entry, ptr %32, i32 0, i32 2
  %34 = load i32, ptr %33, align 4, !tbaa !9
  %35 = load ptr, ptr %5, align 8, !tbaa !36
  %36 = getelementptr inbounds nuw %struct.stat, ptr %35, i32 0, i32 3
  %37 = load i32, ptr %36, align 8, !tbaa !38
  %38 = xor i32 %34, %37
  %39 = and i32 64, %38
  %40 = icmp ne i32 %39, 0
  br i1 %40, label %41, label %44

41:                                               ; preds = %31
  %42 = load i32, ptr %6, align 4, !tbaa !9
  %43 = or i32 %42, 8
  store i32 %43, ptr %6, align 4, !tbaa !9
  br label %44

44:                                               ; preds = %41, %31, %19
  br label %87

45:                                               ; preds = %14
  %46 = load ptr, ptr %5, align 8, !tbaa !36
  %47 = getelementptr inbounds nuw %struct.stat, ptr %46, i32 0, i32 3
  %48 = load i32, ptr %47, align 8, !tbaa !38
  %49 = and i32 %48, 61440
  %50 = icmp eq i32 %49, 40960
  br i1 %50, label %63, label %51

51:                                               ; preds = %45
  %52 = load i32, ptr @has_symlinks, align 4, !tbaa !9
  %53 = icmp ne i32 %52, 0
  br i1 %53, label %60, label %54

54:                                               ; preds = %51
  %55 = load ptr, ptr %5, align 8, !tbaa !36
  %56 = getelementptr inbounds nuw %struct.stat, ptr %55, i32 0, i32 3
  %57 = load i32, ptr %56, align 8, !tbaa !38
  %58 = and i32 %57, 61440
  %59 = icmp eq i32 %58, 32768
  br i1 %59, label %63, label %60

60:                                               ; preds = %54, %51
  %61 = load i32, ptr %6, align 4, !tbaa !9
  %62 = or i32 %61, 64
  store i32 %62, ptr %6, align 4, !tbaa !9
  br label %63

63:                                               ; preds = %60, %54, %45
  br label %87

64:                                               ; preds = %14
  %65 = load ptr, ptr %5, align 8, !tbaa !36
  %66 = getelementptr inbounds nuw %struct.stat, ptr %65, i32 0, i32 3
  %67 = load i32, ptr %66, align 8, !tbaa !38
  %68 = and i32 %67, 61440
  %69 = icmp eq i32 %68, 16384
  br i1 %69, label %73, label %70

70:                                               ; preds = %64
  %71 = load i32, ptr %6, align 4, !tbaa !9
  %72 = or i32 %71, 64
  store i32 %72, ptr %6, align 4, !tbaa !9
  br label %81

73:                                               ; preds = %64
  %74 = load ptr, ptr %4, align 8, !tbaa !29
  %75 = call i32 @ce_compare_gitlink(ptr noundef %74)
  %76 = icmp ne i32 %75, 0
  br i1 %76, label %77, label %80

77:                                               ; preds = %73
  %78 = load i32, ptr %6, align 4, !tbaa !9
  %79 = or i32 %78, 32
  store i32 %79, ptr %6, align 4, !tbaa !9
  br label %80

80:                                               ; preds = %77, %73
  br label %81

81:                                               ; preds = %80, %70
  %82 = load i32, ptr %6, align 4, !tbaa !9
  store i32 %82, ptr %3, align 4
  store i32 1, ptr %7, align 4
  br label %113

83:                                               ; preds = %14
  %84 = load ptr, ptr %4, align 8, !tbaa !29
  %85 = getelementptr inbounds nuw %struct.cache_entry, ptr %84, i32 0, i32 2
  %86 = load i32, ptr %85, align 4, !tbaa !9
  call void (ptr, i32, ptr, ...) @BUG_fl(ptr noundef @.str.18, i32 noundef 338, ptr noundef @.str.51, i32 noundef %86) #14
  unreachable

87:                                               ; preds = %63, %44
  %88 = load ptr, ptr %4, align 8, !tbaa !29
  %89 = getelementptr inbounds nuw %struct.cache_entry, ptr %88, i32 0, i32 1
  %90 = load ptr, ptr %5, align 8, !tbaa !36
  %91 = call i32 @match_stat_data(ptr noundef %89, ptr noundef %90)
  %92 = load i32, ptr %6, align 4, !tbaa !9
  %93 = or i32 %92, %91
  store i32 %93, ptr %6, align 4, !tbaa !9
  %94 = load ptr, ptr %4, align 8, !tbaa !29
  %95 = getelementptr inbounds nuw %struct.cache_entry, ptr %94, i32 0, i32 1
  %96 = getelementptr inbounds nuw %struct.stat_data, ptr %95, i32 0, i32 6
  %97 = load i32, ptr %96, align 8, !tbaa !47
  %98 = icmp ne i32 %97, 0
  br i1 %98, label %111, label %99

99:                                               ; preds = %87
  %100 = load ptr, ptr %4, align 8, !tbaa !29
  %101 = getelementptr inbounds nuw %struct.cache_entry, ptr %100, i32 0, i32 7
  %102 = load ptr, ptr @the_repository, align 8, !tbaa !48
  %103 = getelementptr inbounds nuw %struct.repository, ptr %102, i32 0, i32 17
  %104 = load ptr, ptr %103, align 8, !tbaa !49
  %105 = call i32 @is_empty_blob_oid(ptr noundef %101, ptr noundef %104)
  %106 = icmp ne i32 %105, 0
  br i1 %106, label %110, label %107

107:                                              ; preds = %99
  %108 = load i32, ptr %6, align 4, !tbaa !9
  %109 = or i32 %108, 32
  store i32 %109, ptr %6, align 4, !tbaa !9
  br label %110

110:                                              ; preds = %107, %99
  br label %111

111:                                              ; preds = %110, %87
  %112 = load i32, ptr %6, align 4, !tbaa !9
  store i32 %112, ptr %3, align 4
  store i32 1, ptr %7, align 4
  br label %113

113:                                              ; preds = %111, %81, %13
  call void @llvm.lifetime.end.p0(i64 4, ptr %6) #12
  %114 = load i32, ptr %3, align 4
  ret i32 %114
}