; Function Attrs: nounwind uwtable
define internal fastcc i32 @ce_match_stat_basic(ptr noundef %0, ptr noundef %1) unnamed_addr #0 {
  %3 = alloca %struct.object_id, align 4
  %4 = getelementptr inbounds nuw i8, ptr %0, i64 56
  %5 = load i32, ptr %4, align 8, !tbaa !32
  %6 = and i32 %5, 131072
  %.not = icmp eq i32 %6, 0
  br i1 %.not, label %7, label %55

7:                                                ; preds = %2
  %8 = getelementptr inbounds nuw i8, ptr %0, i64 52
  %9 = load i32, ptr %8, align 4, !tbaa !32
  %10 = trunc i32 %9 to i16
  %trunc = and i16 %10, -4096
  switch i16 %trunc, label %41 [
    i16 -32768, label %11
    i16 -24576, label %21
    i16 -8192, label %29
  ]

11:                                               ; preds = %7
  %12 = getelementptr inbounds nuw i8, ptr %1, i64 24
  %13 = load i32, ptr %12, align 8, !tbaa !42
  %14 = and i32 %13, 61440
  %.not27 = icmp eq i32 %14, 32768
  %15 = select i1 %.not27, i32 0, i32 64
  %16 = load i32, ptr @trust_executable_bit, align 4, !tbaa !32
  %.not28 = icmp eq i32 %16, 0
  br i1 %.not28, label %42, label %17

17:                                               ; preds = %11
  %18 = xor i32 %13, %9
  %19 = lshr i32 %18, 3
  %20 = and i32 %19, 8
  %spec.select = or disjoint i32 %15, %20
  br label %42

21:                                               ; preds = %7
  %22 = getelementptr inbounds nuw i8, ptr %1, i64 24
  %23 = load i32, ptr %22, align 8, !tbaa !42
  %24 = and i32 %23, 61440
  %25 = icmp eq i32 %24, 40960
  br i1 %25, label %42, label %26

26:                                               ; preds = %21
  %27 = load i32, ptr @has_symlinks, align 4, !tbaa !32
  %.not26 = icmp eq i32 %27, 0
  %28 = icmp eq i32 %24, 32768
  %or.cond = and i1 %28, %.not26
  %spec.select34 = select i1 %or.cond, i32 0, i32 64
  br label %42

29:                                               ; preds = %7
  %30 = getelementptr inbounds nuw i8, ptr %1, i64 24
  %31 = load i32, ptr %30, align 8, !tbaa !42
  %32 = and i32 %31, 61440
  %33 = icmp eq i32 %32, 16384
  br i1 %33, label %34, label %55

34:                                               ; preds = %29
  call void @llvm.lifetime.start.p0(i64 36, ptr nonnull %3) #30
  %35 = load ptr, ptr @the_repository, align 8, !tbaa !52
  %36 = getelementptr inbounds nuw i8, ptr %0, i64 108
  %37 = call i32 @repo_resolve_gitlink_ref(ptr noundef %35, ptr noundef nonnull %36, ptr noundef nonnull @.str.3, ptr noundef nonnull %3) #30
  %38 = icmp slt i32 %37, 0
  br i1 %38, label %ce_compare_gitlink.exit.thread, label %ce_compare_gitlink.exit

ce_compare_gitlink.exit.thread:                   ; preds = %34
  call void @llvm.lifetime.end.p0(i64 36, ptr nonnull %3) #30
  br label %40

ce_compare_gitlink.exit:                          ; preds = %34
  %39 = getelementptr inbounds nuw i8, ptr %0, i64 72
  %bcmp.i.i = call i32 @bcmp(ptr noundef nonnull readonly dereferenceable(32) %3, ptr noundef nonnull readonly dereferenceable(32) %39, i64 32)
  %bcmp.i.i.fr = freeze i32 %bcmp.i.i
  %.not.i.i.not = icmp eq i32 %bcmp.i.i.fr, 0
  call void @llvm.lifetime.end.p0(i64 36, ptr nonnull %3) #30
  br i1 %.not.i.i.not, label %40, label %55

40:                                               ; preds = %ce_compare_gitlink.exit.thread, %ce_compare_gitlink.exit
  br label %55

41:                                               ; preds = %7
  tail call void (ptr, i32, ptr, ...) @BUG_fl(ptr noundef nonnull @.str.18, i32 noundef 338, ptr noundef nonnull @.str.51, i32 noundef %9) #31
  unreachable

42:                                               ; preds = %26, %17, %21, %11
  %.0 = phi i32 [ 0, %21 ], [ %15, %11 ], [ %spec.select, %17 ], [ %spec.select34, %26 ]
  %43 = getelementptr inbounds nuw i8, ptr %0, i64 16
  %44 = tail call i32 @match_stat_data(ptr noundef nonnull %43, ptr noundef nonnull %1) #30
  %45 = or i32 %44, %.0
  %46 = getelementptr inbounds nuw i8, ptr %0, i64 48
  %47 = load i32, ptr %46, align 8, !tbaa !53
  %.not30 = icmp eq i32 %47, 0
  br i1 %.not30, label %48, label %55

48:                                               ; preds = %42
  %49 = getelementptr inbounds nuw i8, ptr %0, i64 72
  %50 = load ptr, ptr @the_repository, align 8, !tbaa !52
  %51 = getelementptr inbounds nuw i8, ptr %50, i64 400
  %52 = load ptr, ptr %51, align 8, !tbaa !54
  %53 = getelementptr i8, ptr %52, i64 88
  %.val = load ptr, ptr %53, align 8, !tbaa !68
  %bcmp.i.i35 = tail call i32 @bcmp(ptr noundef nonnull readonly dereferenceable(32) %49, ptr noundef nonnull readonly dereferenceable(32) %.val, i64 32)
  %.not.i.i36.not = icmp eq i32 %bcmp.i.i35, 0
  %54 = or i32 %45, 32
  %spec.select33 = select i1 %.not.i.i36.not, i32 %45, i32 %54
  br label %55

55:                                               ; preds = %40, %ce_compare_gitlink.exit, %48, %42, %29, %2
  %.023 = phi i32 [ 104, %2 ], [ 64, %29 ], [ %45, %42 ], [ %spec.select33, %48 ], [ 0, %40 ], [ 32, %ce_compare_gitlink.exit ]
  ret i32 %.023
}